; ModuleID = '10/1988.c'
source_filename = "10/1988.c"
target datalayout = "e-m:e-p270:32:32-p271:32:32-p272:64:64-i64:64-f80:128-n8:16:32:64-S128"
target triple = "x86_64-pc-linux-gnu"

@.str = private unnamed_addr constant [3 x i8] c"%d\00", align 1

; Function Attrs: noinline nounwind uwtable
define dso_local i32 @main() #0 {
  %1 = alloca i32, align 4
  %2 = alloca i32, align 4
  %3 = alloca [25 x i32], align 16
  %4 = alloca [25 x i32], align 16
  %5 = alloca i32, align 4
  %6 = alloca i32, align 4
  %7 = alloca i32, align 4
  %8 = alloca i32, align 4
  %9 = alloca i32, align 4
  %10 = alloca i32, align 4
  %11 = alloca i32, align 4
  store i32 0, i32* %1, align 4
  %12 = call i32 (i8*, ...) @__isoc99_scanf(i8* getelementptr inbounds ([3 x i8], [3 x i8]* @.str, i64 0, i64 0), i32* %2)
  store i32 0, i32* %5, align 4
  br label %13

13:                                               ; preds = %25, %0
  %14 = load i32, i32* %5, align 4
  %15 = load i32, i32* %2, align 4
  %16 = icmp slt i32 %14, %15
  br i1 %16, label %17, label %28

17:                                               ; preds = %13
  %18 = load i32, i32* %5, align 4
  %19 = sext i32 %18 to i64
  %20 = getelementptr inbounds [25 x i32], [25 x i32]* %3, i64 0, i64 %19
  %21 = call i32 (i8*, ...) @__isoc99_scanf(i8* getelementptr inbounds ([3 x i8], [3 x i8]* @.str, i64 0, i64 0), i32* %20)
  %22 = load i32, i32* %5, align 4
  %23 = sext i32 %22 to i64
  %24 = getelementptr inbounds [25 x i32], [25 x i32]* %4, i64 0, i64 %23
  store i32 1, i32* %24, align 4
  br label %25

25:                                               ; preds = %17
  %26 = load i32, i32* %5, align 4
  %27 = add nsw i32 %26, 1
  store i32 %27, i32* %5, align 4
  br label %13

28:                                               ; preds = %13
  store i32 1, i32* %7, align 4
  br label %29

29:                                               ; preds = %71, %28
  %30 = load i32, i32* %7, align 4
  %31 = load i32, i32* %2, align 4
  %32 = icmp slt i32 %30, %31
  br i1 %32, label %33, label %74

33:                                               ; preds = %29
  store i32 0, i32* %8, align 4
  br label %34

34:                                               ; preds = %67, %33
  %35 = load i32, i32* %8, align 4
  %36 = load i32, i32* %7, align 4
  %37 = icmp slt i32 %35, %36
  br i1 %37, label %38, label %70

38:                                               ; preds = %34
  %39 = load i32, i32* %7, align 4
  %40 = sext i32 %39 to i64
  %41 = getelementptr inbounds [25 x i32], [25 x i32]* %3, i64 0, i64 %40
  %42 = load i32, i32* %41, align 4
  %43 = load i32, i32* %8, align 4
  %44 = sext i32 %43 to i64
  %45 = getelementptr inbounds [25 x i32], [25 x i32]* %3, i64 0, i64 %44
  %46 = load i32, i32* %45, align 4
  %47 = icmp sle i32 %42, %46
  br i1 %47, label %48, label %66

48:                                               ; preds = %38
  %49 = load i32, i32* %8, align 4
  %50 = sext i32 %49 to i64
  %51 = getelementptr inbounds [25 x i32], [25 x i32]* %4, i64 0, i64 %50
  %52 = load i32, i32* %51, align 4
  %53 = add nsw i32 %52, 1
  store i32 %53, i32* %9, align 4
  %54 = load i32, i32* %9, align 4
  %55 = load i32, i32* %7, align 4
  %56 = sext i32 %55 to i64
  %57 = getelementptr inbounds [25 x i32], [25 x i32]* %4, i64 0, i64 %56
  %58 = load i32, i32* %57, align 4
  %59 = icmp sgt i32 %54, %58
  br i1 %59, label %60, label %65

60:                                               ; preds = %48
  %61 = load i32, i32* %9, align 4
  %62 = load i32, i32* %7, align 4
  %63 = sext i32 %62 to i64
  %64 = getelementptr inbounds [25 x i32], [25 x i32]* %4, i64 0, i64 %63
  store i32 %61, i32* %64, align 4
  br label %65

65:                                               ; preds = %60, %48
  br label %66

66:                                               ; preds = %65, %38
  br label %67

67:                                               ; preds = %66
  %68 = load i32, i32* %8, align 4
  %69 = add nsw i32 %68, 1
  store i32 %69, i32* %8, align 4
  br label %34

70:                                               ; preds = %34
  br label %71

71:                                               ; preds = %70
  %72 = load i32, i32* %7, align 4
  %73 = add nsw i32 %72, 1
  store i32 %73, i32* %7, align 4
  br label %29

74:                                               ; preds = %29
  store i32 1, i32* %11, align 4
  store i32 1, i32* %6, align 4
  br label %75

75:                                               ; preds = %92, %74
  %76 = load i32, i32* %6, align 4
  %77 = load i32, i32* %2, align 4
  %78 = icmp slt i32 %76, %77
  br i1 %78, label %79, label %95

79:                                               ; preds = %75
  %80 = load i32, i32* %6, align 4
  %81 = sext i32 %80 to i64
  %82 = getelementptr inbounds [25 x i32], [25 x i32]* %4, i64 0, i64 %81
  %83 = load i32, i32* %82, align 4
  %84 = load i32, i32* %11, align 4
  %85 = icmp sgt i32 %83, %84
  br i1 %85, label %86, label %91

86:                                               ; preds = %79
  %87 = load i32, i32* %6, align 4
  %88 = sext i32 %87 to i64
  %89 = getelementptr inbounds [25 x i32], [25 x i32]* %4, i64 0, i64 %88
  %90 = load i32, i32* %89, align 4
  store i32 %90, i32* %11, align 4
  br label %91

91:                                               ; preds = %86, %79
  br label %92

92:                                               ; preds = %91
  %93 = load i32, i32* %6, align 4
  %94 = add nsw i32 %93, 1
  store i32 %94, i32* %6, align 4
  br label %75

95:                                               ; preds = %75
  %96 = load i32, i32* %11, align 4
  %97 = call i32 (i8*, ...) @printf(i8* getelementptr inbounds ([3 x i8], [3 x i8]* @.str, i64 0, i64 0), i32 %96)
  ret i32 0
}

declare dso_local i32 @__isoc99_scanf(i8*, ...) #1

declare dso_local i32 @printf(i8*, ...) #1


!llvm.module.flags = !{!0}
!llvm.ident = !{!1}

!0 = !{i32 1, !"wchar_size", i32 4}
!1 = !{!"clang version 10.0.0-4ubuntu1 "}
